target datalayout = "e-m:e-p270:32:32-p271:32:32-p272:64:64-i64:64-i128:128-f80:128-n8:16:32:64-S128"
target triple = "x86_64-pc-linux-gnu"

%struct.engine_st = type { ptr, ptr, ptr, ptr, ptr, ptr, ptr, ptr, ptr, ptr, ptr, ptr, ptr, ptr, ptr, ptr, ptr, ptr, ptr, i32, %struct.CRYPTO_REF_COUNT, i32, %struct.crypto_ex_data_st, ptr, ptr, ptr, ptr, ptr }
%struct.CRYPTO_REF_COUNT = type { i32 }
%struct.crypto_ex_data_st = type { ptr, ptr }

@.str = private unnamed_addr constant [37 x i8] c"../openssl/crypto/engine/tb_asnmth.c\00", align 1
@__func__.ENGINE_get_pkey_asn1_meth = private unnamed_addr constant [26 x i8] c"ENGINE_get_pkey_asn1_meth\00", align 1

; Function Attrs: nounwind uwtable
define ptr @ENGINE_get_pkey_asn1_meths(ptr noundef %0) #0 {
  %2 = alloca ptr, align 8
  store ptr %0, ptr %2, align 8, !tbaa !3
  %3 = load ptr, ptr %2, align 8, !tbaa !3
  %4 = getelementptr inbounds nuw %struct.engine_st, ptr %3, i32 0, i32 10
  %5 = load ptr, ptr %4, align 8, !tbaa !8
  ret ptr %5
}

; Function Attrs: nounwind uwtable
define ptr @ENGINE_get_pkey_asn1_meth(ptr noundef %0, i32 noundef %1) #0 {
  %3 = alloca ptr, align 8
  %4 = alloca ptr, align 8
  %5 = alloca i32, align 4
  %6 = alloca ptr, align 8
  %7 = alloca ptr, align 8
  %8 = alloca i32, align 4
  store ptr %0, ptr %4, align 8, !tbaa !3
  store i32 %1, ptr %5, align 4, !tbaa !22
  call void @llvm.lifetime.start.p0(i64 8, ptr %6) #5
  call void @llvm.lifetime.start.p0(i64 8, ptr %7) #5
  %9 = load ptr, ptr %4, align 8, !tbaa !3
  %10 = call ptr @ENGINE_get_pkey_asn1_meths(ptr noundef %9)
  store ptr %10, ptr %7, align 8, !tbaa !27
  %11 = load ptr, ptr %7, align 8, !tbaa !27
  %12 = icmp ne ptr %11, null
  br i1 %12, label %13, label %19

13:                                               ; preds = %2
  %14 = load ptr, ptr %7, align 8, !tbaa !27
  %15 = load ptr, ptr %4, align 8, !tbaa !3
  %16 = load i32, ptr %5, align 4, !tbaa !22
  %17 = call i32 %14(ptr noundef %15, ptr noundef %6, ptr noundef null, i32 noundef %16)
  %18 = icmp ne i32 %17, 0
  br i1 %18, label %20, label %19

19:                                               ; preds = %13, %2
  call void @ERR_new()
  call void @ERR_set_debug(ptr noundef @.str, i32 noundef 92, ptr noundef @__func__.ENGINE_get_pkey_asn1_meth)
  call void (i32, i32, ptr, ...) @ERR_set_error(i32 noundef 38, i32 noundef 101, ptr noundef null)
  store ptr null, ptr %3, align 8
  store i32 1, ptr %8, align 4
  br label %22

20:                                               ; preds = %13
  %21 = load ptr, ptr %6, align 8, !tbaa !28
  store ptr %21, ptr %3, align 8
  store i32 1, ptr %8, align 4
  br label %22

22:                                               ; preds = %20, %19
  call void @llvm.lifetime.end.p0(i64 8, ptr %7) #5
  call void @llvm.lifetime.end.p0(i64 8, ptr %6) #5
  %23 = load ptr, ptr %3, align 8
  ret ptr %23
}