; Function Attrs: nounwind uwtable
define ptr @ENGINE_get_pkey_asn1_meth(ptr noundef %0, i32 noundef %1) local_unnamed_addr #0 {
  %3 = alloca ptr, align 8
  call void @llvm.lifetime.start.p0(i64 8, ptr nonnull %3) #7
  %4 = getelementptr inbounds nuw i8, ptr %0, i64 80
  %5 = load ptr, ptr %4, align 8, !tbaa !3
  %.not = icmp eq ptr %5, null
  br i1 %.not, label %8, label %6

6:                                                ; preds = %2
  %7 = call i32 %5(ptr noundef nonnull %0, ptr noundef nonnull %3, ptr noundef null, i32 noundef %1) #7
  %.not6 = icmp eq i32 %7, 0
  br i1 %.not6, label %8, label %9

8:                                                ; preds = %6, %2
  call void @ERR_new() #7
  call void @ERR_set_debug(ptr noundef nonnull @.str, i32 noundef 92, ptr noundef nonnull @__func__.ENGINE_get_pkey_asn1_meth) #7
  call void (i32, i32, ptr, ...) @ERR_set_error(i32 noundef 38, i32 noundef 101, ptr noundef null) #7
  br label %11

9:                                                ; preds = %6
  %10 = load ptr, ptr %3, align 8, !tbaa !25
  br label %11

11:                                               ; preds = %9, %8
  %.0 = phi ptr [ %10, %9 ], [ null, %8 ]
  call void @llvm.lifetime.end.p0(i64 8, ptr nonnull %3) #7
  ret ptr %.0
}